target datalayout = "e-m:e-p270:32:32-p271:32:32-p272:64:64-i64:64-i128:128-f80:128-n8:16:32:64-S128"
target triple = "x86_64-pc-linux-gnu"

%struct.ma_vec3f = type { float, float, float }

; Function Attrs: nounwind uwtable
define float @ma_vec3f_dot(<2 x float> %0, float %1, <2 x float> %2, float %3) #14 {
  %5 = alloca %struct.ma_vec3f, align 4
  %6 = alloca { <2 x float>, float }, align 4
  %7 = alloca %struct.ma_vec3f, align 4
  %8 = alloca { <2 x float>, float }, align 4
  %9 = getelementptr inbounds nuw { <2 x float>, float }, ptr %6, i32 0, i32 0
  store <2 x float> %0, ptr %9, align 4
  %10 = getelementptr inbounds nuw { <2 x float>, float }, ptr %6, i32 0, i32 1
  store float %1, ptr %10, align 4
  call void @llvm.memcpy.p0.p0.i64(ptr align 4 %5, ptr align 4 %6, i64 12, i1 false)
  %11 = getelementptr inbounds nuw { <2 x float>, float }, ptr %8, i32 0, i32 0
  store <2 x float> %2, ptr %11, align 4
  %12 = getelementptr inbounds nuw { <2 x float>, float }, ptr %8, i32 0, i32 1
  store float %3, ptr %12, align 4
  call void @llvm.memcpy.p0.p0.i64(ptr align 4 %7, ptr align 4 %8, i64 12, i1 false)
  %13 = getelementptr inbounds nuw %struct.ma_vec3f, ptr %5, i32 0, i32 0
  %14 = load float, ptr %13, align 4, !tbaa !594
  %15 = getelementptr inbounds nuw %struct.ma_vec3f, ptr %7, i32 0, i32 0
  %16 = load float, ptr %15, align 4, !tbaa !594
  %17 = getelementptr inbounds nuw %struct.ma_vec3f, ptr %5, i32 0, i32 1
  %18 = load float, ptr %17, align 4, !tbaa !596
  %19 = getelementptr inbounds nuw %struct.ma_vec3f, ptr %7, i32 0, i32 1
  %20 = load float, ptr %19, align 4, !tbaa !596
  %21 = fmul float %18, %20
  %22 = call float @llvm.fmuladd.f32(float %14, float %16, float %21)
  %23 = getelementptr inbounds nuw %struct.ma_vec3f, ptr %5, i32 0, i32 2
  %24 = load float, ptr %23, align 4, !tbaa !597
  %25 = getelementptr inbounds nuw %struct.ma_vec3f, ptr %7, i32 0, i32 2
  %26 = load float, ptr %25, align 4, !tbaa !597
  %27 = call float @llvm.fmuladd.f32(float %24, float %26, float %22)
  ret float %27
}

; Function Attrs: alwaysinline nounwind uwtable
define internal double @ma_sqrtd(double noundef %0) #7 {
  %2 = alloca double, align 8
  store double %0, ptr %2, align 8, !tbaa !403
  %3 = load double, ptr %2, align 8, !tbaa !403
  %4 = call double @sqrt(double noundef %3) #16, !tbaa !8
  ret double %4
}

; Function Attrs: nounwind uwtable
define float @ma_vec3f_len2(<2 x float> %0, float %1) #14 {
  %3 = alloca %struct.ma_vec3f, align 4
  %4 = alloca { <2 x float>, float }, align 4
  %5 = alloca { <2 x float>, float }, align 4
  %6 = alloca { <2 x float>, float }, align 4
  %7 = getelementptr inbounds nuw { <2 x float>, float }, ptr %4, i32 0, i32 0
  store <2 x float> %0, ptr %7, align 4
  %8 = getelementptr inbounds nuw { <2 x float>, float }, ptr %4, i32 0, i32 1
  store float %1, ptr %8, align 4
  call void @llvm.memcpy.p0.p0.i64(ptr align 4 %3, ptr align 4 %4, i64 12, i1 false)
  call void @llvm.memcpy.p0.p0.i64(ptr align 4 %5, ptr align 4 %3, i64 12, i1 false)
  %9 = getelementptr inbounds nuw { <2 x float>, float }, ptr %5, i32 0, i32 0
  %10 = load <2 x float>, ptr %9, align 4
  %11 = getelementptr inbounds nuw { <2 x float>, float }, ptr %5, i32 0, i32 1
  %12 = load float, ptr %11, align 4
  call void @llvm.memcpy.p0.p0.i64(ptr align 4 %6, ptr align 4 %3, i64 12, i1 false)
  %13 = getelementptr inbounds nuw { <2 x float>, float }, ptr %6, i32 0, i32 0
  %14 = load <2 x float>, ptr %13, align 4
  %15 = getelementptr inbounds nuw { <2 x float>, float }, ptr %6, i32 0, i32 1
  %16 = load float, ptr %15, align 4
  %17 = call float @ma_vec3f_dot(<2 x float> %10, float %12, <2 x float> %14, float %16)
  ret float %17
}

; Function Attrs: nounwind uwtable
define { <2 x float>, float } @ma_vec3f_init_3f(float noundef %0, float noundef %1, float noundef %2) #0 {
  %4 = alloca %struct.ma_vec3f, align 4
  %5 = alloca float, align 4
  %6 = alloca float, align 4
  %7 = alloca float, align 4
  %8 = alloca { <2 x float>, float }, align 8
  store float %0, ptr %5, align 4, !tbaa !339
  store float %1, ptr %6, align 4, !tbaa !339
  store float %2, ptr %7, align 4, !tbaa !339
  %9 = load float, ptr %5, align 4, !tbaa !339
  %10 = getelementptr inbounds nuw %struct.ma_vec3f, ptr %4, i32 0, i32 0
  store float %9, ptr %10, align 4, !tbaa !594
  %11 = load float, ptr %6, align 4, !tbaa !339
  %12 = getelementptr inbounds nuw %struct.ma_vec3f, ptr %4, i32 0, i32 1
  store float %11, ptr %12, align 4, !tbaa !596
  %13 = load float, ptr %7, align 4, !tbaa !339
  %14 = getelementptr inbounds nuw %struct.ma_vec3f, ptr %4, i32 0, i32 2
  store float %13, ptr %14, align 4, !tbaa !597
  call void @llvm.memcpy.p0.p0.i64(ptr align 8 %8, ptr align 4 %4, i64 12, i1 false)
  %15 = load { <2 x float>, float }, ptr %8, align 8
  ret { <2 x float>, float } %15
}

; Function Attrs: nounwind uwtable
define float @ma_vec3f_len(<2 x float> %0, float %1) #14 {
  %3 = alloca %struct.ma_vec3f, align 4
  %4 = alloca { <2 x float>, float }, align 4
  %5 = alloca { <2 x float>, float }, align 4
  %6 = getelementptr inbounds nuw { <2 x float>, float }, ptr %4, i32 0, i32 0
  store <2 x float> %0, ptr %6, align 4
  %7 = getelementptr inbounds nuw { <2 x float>, float }, ptr %4, i32 0, i32 1
  store float %1, ptr %7, align 4
  call void @llvm.memcpy.p0.p0.i64(ptr align 4 %3, ptr align 4 %4, i64 12, i1 false)
  call void @llvm.memcpy.p0.p0.i64(ptr align 4 %5, ptr align 4 %3, i64 12, i1 false)
  %8 = getelementptr inbounds nuw { <2 x float>, float }, ptr %5, i32 0, i32 0
  %9 = load <2 x float>, ptr %8, align 4
  %10 = getelementptr inbounds nuw { <2 x float>, float }, ptr %5, i32 0, i32 1
  %11 = load float, ptr %10, align 4
  %12 = call float @ma_vec3f_len2(<2 x float> %9, float %11)
  %13 = fpext float %12 to double
  %14 = call double @ma_sqrtd(double noundef %13)
  %15 = fptrunc double %14 to float
  ret float %15
}

; Function Attrs: nounwind uwtable
define { <2 x float>, float } @ma_vec3f_sub(<2 x float> %0, float %1, <2 x float> %2, float %3) #14 {
  %5 = alloca %struct.ma_vec3f, align 4
  %6 = alloca %struct.ma_vec3f, align 4
  %7 = alloca { <2 x float>, float }, align 4
  %8 = alloca %struct.ma_vec3f, align 4
  %9 = alloca { <2 x float>, float }, align 4
  %10 = alloca { <2 x float>, float }, align 8
  %11 = alloca { <2 x float>, float }, align 8
  %12 = getelementptr inbounds nuw { <2 x float>, float }, ptr %7, i32 0, i32 0
  store <2 x float> %0, ptr %12, align 4
  %13 = getelementptr inbounds nuw { <2 x float>, float }, ptr %7, i32 0, i32 1
  store float %1, ptr %13, align 4
  call void @llvm.memcpy.p0.p0.i64(ptr align 4 %6, ptr align 4 %7, i64 12, i1 false)
  %14 = getelementptr inbounds nuw { <2 x float>, float }, ptr %9, i32 0, i32 0
  store <2 x float> %2, ptr %14, align 4
  %15 = getelementptr inbounds nuw { <2 x float>, float }, ptr %9, i32 0, i32 1
  store float %3, ptr %15, align 4
  call void @llvm.memcpy.p0.p0.i64(ptr align 4 %8, ptr align 4 %9, i64 12, i1 false)
  %16 = getelementptr inbounds nuw %struct.ma_vec3f, ptr %6, i32 0, i32 0
  %17 = load float, ptr %16, align 4, !tbaa !594
  %18 = getelementptr inbounds nuw %struct.ma_vec3f, ptr %8, i32 0, i32 0
  %19 = load float, ptr %18, align 4, !tbaa !594
  %20 = fsub float %17, %19
  %21 = getelementptr inbounds nuw %struct.ma_vec3f, ptr %6, i32 0, i32 1
  %22 = load float, ptr %21, align 4, !tbaa !596
  %23 = getelementptr inbounds nuw %struct.ma_vec3f, ptr %8, i32 0, i32 1
  %24 = load float, ptr %23, align 4, !tbaa !596
  %25 = fsub float %22, %24
  %26 = getelementptr inbounds nuw %struct.ma_vec3f, ptr %6, i32 0, i32 2
  %27 = load float, ptr %26, align 4, !tbaa !597
  %28 = getelementptr inbounds nuw %struct.ma_vec3f, ptr %8, i32 0, i32 2
  %29 = load float, ptr %28, align 4, !tbaa !597
  %30 = fsub float %27, %29
  %31 = call { <2 x float>, float } @ma_vec3f_init_3f(float noundef %20, float noundef %25, float noundef %30)
  store { <2 x float>, float } %31, ptr %10, align 8
  call void @llvm.memcpy.p0.p0.i64(ptr align 4 %5, ptr align 8 %10, i64 12, i1 false)
  call void @llvm.memcpy.p0.p0.i64(ptr align 8 %11, ptr align 4 %5, i64 12, i1 false)
  %32 = load { <2 x float>, float }, ptr %11, align 8
  ret { <2 x float>, float } %32
}

; Function Attrs: nounwind uwtable
define float @ma_vec3f_dist(<2 x float> %0, float %1, <2 x float> %2, float %3) #14 {
  %5 = alloca %struct.ma_vec3f, align 4
  %6 = alloca { <2 x float>, float }, align 4
  %7 = alloca %struct.ma_vec3f, align 4
  %8 = alloca { <2 x float>, float }, align 4
  %9 = alloca %struct.ma_vec3f, align 4
  %10 = alloca { <2 x float>, float }, align 4
  %11 = alloca { <2 x float>, float }, align 4
  %12 = alloca { <2 x float>, float }, align 8
  %13 = alloca { <2 x float>, float }, align 4
  %14 = getelementptr inbounds nuw { <2 x float>, float }, ptr %6, i32 0, i32 0
  store <2 x float> %0, ptr %14, align 4
  %15 = getelementptr inbounds nuw { <2 x float>, float }, ptr %6, i32 0, i32 1
  store float %1, ptr %15, align 4
  call void @llvm.memcpy.p0.p0.i64(ptr align 4 %5, ptr align 4 %6, i64 12, i1 false)
  %16 = getelementptr inbounds nuw { <2 x float>, float }, ptr %8, i32 0, i32 0
  store <2 x float> %2, ptr %16, align 4
  %17 = getelementptr inbounds nuw { <2 x float>, float }, ptr %8, i32 0, i32 1
  store float %3, ptr %17, align 4
  call void @llvm.memcpy.p0.p0.i64(ptr align 4 %7, ptr align 4 %8, i64 12, i1 false)
  call void @llvm.memcpy.p0.p0.i64(ptr align 4 %10, ptr align 4 %5, i64 12, i1 false)
  %18 = getelementptr inbounds nuw { <2 x float>, float }, ptr %10, i32 0, i32 0
  %19 = load <2 x float>, ptr %18, align 4
  %20 = getelementptr inbounds nuw { <2 x float>, float }, ptr %10, i32 0, i32 1
  %21 = load float, ptr %20, align 4
  call void @llvm.memcpy.p0.p0.i64(ptr align 4 %11, ptr align 4 %7, i64 12, i1 false)
  %22 = getelementptr inbounds nuw { <2 x float>, float }, ptr %11, i32 0, i32 0
  %23 = load <2 x float>, ptr %22, align 4
  %24 = getelementptr inbounds nuw { <2 x float>, float }, ptr %11, i32 0, i32 1
  %25 = load float, ptr %24, align 4
  %26 = call { <2 x float>, float } @ma_vec3f_sub(<2 x float> %19, float %21, <2 x float> %23, float %25)
  store { <2 x float>, float } %26, ptr %12, align 8
  call void @llvm.memcpy.p0.p0.i64(ptr align 4 %9, ptr align 8 %12, i64 12, i1 false)
  call void @llvm.memcpy.p0.p0.i64(ptr align 4 %13, ptr align 4 %9, i64 12, i1 false)
  %27 = getelementptr inbounds nuw { <2 x float>, float }, ptr %13, i32 0, i32 0
  %28 = load <2 x float>, ptr %27, align 4
  %29 = getelementptr inbounds nuw { <2 x float>, float }, ptr %13, i32 0, i32 1
  %30 = load float, ptr %29, align 4
  %31 = call float @ma_vec3f_len(<2 x float> %28, float %30)
  ret float %31
}