; Function Attrs: mustprogress nofree norecurse nosync nounwind willreturn memory(none) uwtable
define float @ma_vec3f_dist(<2 x float> %0, float %1, <2 x float> %2, float %3) local_unnamed_addr #41 {
  %5 = fsub <2 x float> %0, %2
  %6 = extractelement <2 x float> %5, i64 0
  %7 = fsub <2 x float> %0, %2
  %8 = fsub float %1, %3
  %9 = fmul <2 x float> %7, %7
  %10 = extractelement <2 x float> %9, i64 1
  %11 = tail call float @llvm.fmuladd.f32(float %6, float %6, float %10)
  %12 = tail call float @llvm.fmuladd.f32(float %8, float %8, float %11)
  %sqrt.i = tail call float @llvm.sqrt.f32(float %12)
  ret float %sqrt.i
}